target datalayout = "e-m:e-p270:32:32-p271:32:32-p272:64:64-i64:64-i128:128-f80:128-n8:16:32:64-S128"
target triple = "x86_64-pc-linux-gnu"

%struct.dbcs_index = type { ptr, i8, i8 }

; Function Attrs: nounwind uwtable
define internal i64 @big5_decode(ptr noundef %0, ptr noundef %1, ptr noundef %2, i64 noundef %3, ptr noundef %4) #0 {
  %6 = alloca i64, align 8
  %7 = alloca ptr, align 8
  %8 = alloca ptr, align 8
  %9 = alloca ptr, align 8
  %10 = alloca i64, align 8
  %11 = alloca ptr, align 8
  %12 = alloca i8, align 1
  %13 = alloca i32, align 4
  %14 = alloca i32, align 4
  store ptr %0, ptr %7, align 8, !tbaa !3
  store ptr %1, ptr %8, align 8, !tbaa !21
  store ptr %2, ptr %9, align 8, !tbaa !68
  store i64 %3, ptr %10, align 8, !tbaa !28
  store ptr %4, ptr %11, align 8, !tbaa !3
  br label %15

15:                                               ; preds = %130, %128, %5
  %16 = load i64, ptr %10, align 8, !tbaa !28
  %17 = icmp sgt i64 %16, 0
  br i1 %17, label %18, label %131

18:                                               ; preds = %15
  call void @llvm.lifetime.start.p0(i64 1, ptr %12) #9
  %19 = load ptr, ptr %9, align 8, !tbaa !68
  %20 = load ptr, ptr %19, align 8, !tbaa !17
  %21 = getelementptr i8, ptr %20, i64 0
  %22 = load i8, ptr %21, align 1, !tbaa !42
  store i8 %22, ptr %12, align 1, !tbaa !42
  call void @llvm.lifetime.start.p0(i64 4, ptr %13) #9
  %23 = load i8, ptr %12, align 1, !tbaa !42
  %24 = zext i8 %23 to i32
  %25 = icmp slt i32 %24, 128
  br i1 %25, label %26, label %45

26:                                               ; preds = %18
  br label %27

27:                                               ; preds = %26
  %28 = load ptr, ptr %11, align 8, !tbaa !3
  %29 = load i8, ptr %12, align 1, !tbaa !42
  %30 = zext i8 %29 to i32
  %31 = call i32 @_PyUnicodeWriter_WriteChar(ptr noundef %28, i32 noundef %30)
  %32 = icmp slt i32 %31, 0
  br i1 %32, label %33, label %34

33:                                               ; preds = %27
  store i64 -4, ptr %6, align 8
  store i32 1, ptr %14, align 4
  br label %128

34:                                               ; preds = %27
  br label %35

35:                                               ; preds = %34
  br label %36

36:                                               ; preds = %35
  br label %37

37:                                               ; preds = %36
  %38 = load ptr, ptr %9, align 8, !tbaa !68
  %39 = load ptr, ptr %38, align 8, !tbaa !17
  %40 = getelementptr i8, ptr %39, i64 1
  store ptr %40, ptr %38, align 8, !tbaa !17
  %41 = load i64, ptr %10, align 8, !tbaa !28
  %42 = sub i64 %41, 1
  store i64 %42, ptr %10, align 8, !tbaa !28
  br label %43

43:                                               ; preds = %37
  br label %44

44:                                               ; preds = %43
  store i32 2, ptr %14, align 4
  br label %128, !llvm.loop !77

45:                                               ; preds = %18
  br label %46

46:                                               ; preds = %45
  %47 = load i64, ptr %10, align 8, !tbaa !28
  %48 = icmp slt i64 %47, 2
  br i1 %48, label %49, label %50

49:                                               ; preds = %46
  store i64 -2, ptr %6, align 8
  store i32 1, ptr %14, align 4
  br label %128

50:                                               ; preds = %46
  br label %51

51:                                               ; preds = %50
  br label %52

52:                                               ; preds = %51
  %53 = load i8, ptr %12, align 1, !tbaa !42
  %54 = zext i8 %53 to i64
  %55 = getelementptr [256 x %struct.dbcs_index], ptr @big5_decmap, i64 0, i64 %54
  %56 = getelementptr inbounds nuw %struct.dbcs_index, ptr %55, i32 0, i32 0
  %57 = load ptr, ptr %56, align 16, !tbaa !78
  %58 = icmp ne ptr %57, null
  br i1 %58, label %59, label %126

59:                                               ; preds = %52
  %60 = load ptr, ptr %9, align 8, !tbaa !68
  %61 = load ptr, ptr %60, align 8, !tbaa !17
  %62 = getelementptr i8, ptr %61, i64 1
  %63 = load i8, ptr %62, align 1, !tbaa !42
  %64 = zext i8 %63 to i32
  %65 = load i8, ptr %12, align 1, !tbaa !42
  %66 = zext i8 %65 to i64
  %67 = getelementptr [256 x %struct.dbcs_index], ptr @big5_decmap, i64 0, i64 %66
  %68 = getelementptr inbounds nuw %struct.dbcs_index, ptr %67, i32 0, i32 1
  %69 = load i8, ptr %68, align 8, !tbaa !80
  %70 = zext i8 %69 to i32
  %71 = icmp sge i32 %64, %70
  br i1 %71, label %72, label %126

72:                                               ; preds = %59
  %73 = load ptr, ptr %9, align 8, !tbaa !68
  %74 = load ptr, ptr %73, align 8, !tbaa !17
  %75 = getelementptr i8, ptr %74, i64 1
  %76 = load i8, ptr %75, align 1, !tbaa !42
  %77 = zext i8 %76 to i32
  %78 = load i8, ptr %12, align 1, !tbaa !42
  %79 = zext i8 %78 to i64
  %80 = getelementptr [256 x %struct.dbcs_index], ptr @big5_decmap, i64 0, i64 %79
  %81 = getelementptr inbounds nuw %struct.dbcs_index, ptr %80, i32 0, i32 2
  %82 = load i8, ptr %81, align 1, !tbaa !81
  %83 = zext i8 %82 to i32
  %84 = icmp sle i32 %77, %83
  br i1 %84, label %85, label %126

85:                                               ; preds = %72
  %86 = load i8, ptr %12, align 1, !tbaa !42
  %87 = zext i8 %86 to i64
  %88 = getelementptr [256 x %struct.dbcs_index], ptr @big5_decmap, i64 0, i64 %87
  %89 = getelementptr inbounds nuw %struct.dbcs_index, ptr %88, i32 0, i32 0
  %90 = load ptr, ptr %89, align 16, !tbaa !78
  %91 = load ptr, ptr %9, align 8, !tbaa !68
  %92 = load ptr, ptr %91, align 8, !tbaa !17
  %93 = getelementptr i8, ptr %92, i64 1
  %94 = load i8, ptr %93, align 1, !tbaa !42
  %95 = zext i8 %94 to i32
  %96 = load i8, ptr %12, align 1, !tbaa !42
  %97 = zext i8 %96 to i64
  %98 = getelementptr [256 x %struct.dbcs_index], ptr @big5_decmap, i64 0, i64 %97
  %99 = getelementptr inbounds nuw %struct.dbcs_index, ptr %98, i32 0, i32 1
  %100 = load i8, ptr %99, align 8, !tbaa !80
  %101 = zext i8 %100 to i32
  %102 = sub i32 %95, %101
  %103 = sext i32 %102 to i64
  %104 = getelementptr i16, ptr %90, i64 %103
  %105 = load i16, ptr %104, align 2, !tbaa !76
  %106 = zext i16 %105 to i32
  store i32 %106, ptr %13, align 4, !tbaa !19
  %107 = icmp ne i32 %106, 65534
  br i1 %107, label %108, label %126

108:                                              ; preds = %85
  br label %109

109:                                              ; preds = %108
  %110 = load ptr, ptr %11, align 8, !tbaa !3
  %111 = load i32, ptr %13, align 4, !tbaa !19
  %112 = call i32 @_PyUnicodeWriter_WriteChar(ptr noundef %110, i32 noundef %111)
  %113 = icmp slt i32 %112, 0
  br i1 %113, label %114, label %115

114:                                              ; preds = %109
  store i64 -4, ptr %6, align 8
  store i32 1, ptr %14, align 4
  br label %128

115:                                              ; preds = %109
  br label %116

116:                                              ; preds = %115
  br label %117

117:                                              ; preds = %116
  br label %118

118:                                              ; preds = %117
  %119 = load ptr, ptr %9, align 8, !tbaa !68
  %120 = load ptr, ptr %119, align 8, !tbaa !17
  %121 = getelementptr i8, ptr %120, i64 2
  store ptr %121, ptr %119, align 8, !tbaa !17
  %122 = load i64, ptr %10, align 8, !tbaa !28
  %123 = sub i64 %122, 2
  store i64 %123, ptr %10, align 8, !tbaa !28
  br label %124

124:                                              ; preds = %118
  br label %125

125:                                              ; preds = %124
  br label %127

126:                                              ; preds = %85, %72, %59, %52
  store i64 1, ptr %6, align 8
  store i32 1, ptr %14, align 4
  br label %128

127:                                              ; preds = %125
  store i32 0, ptr %14, align 4
  br label %128

128:                                              ; preds = %127, %126, %114, %49, %44, %33
  call void @llvm.lifetime.end.p0(i64 4, ptr %13) #9
  call void @llvm.lifetime.end.p0(i64 1, ptr %12) #9
  %129 = load i32, ptr %14, align 4
  switch i32 %129, label %134 [
    i32 0, label %130
    i32 1, label %132
    i32 2, label %15
  ]

130:                                              ; preds = %128
  br label %15, !llvm.loop !77

131:                                              ; preds = %15
  store i64 0, ptr %6, align 8
  br label %132

132:                                              ; preds = %131, %128
  %133 = load i64, ptr %6, align 8
  ret i64 %133

134:                                              ; preds = %128
  unreachable
}