; Function Attrs: nounwind uwtable
define internal range(i64 -4, 2) i64 @big5_decode(ptr readnone captures(none) %0, ptr readnone captures(none) %1, ptr noundef captures(none) %2, i64 noundef %3, ptr noundef %4) #0 {
  %6 = icmp sgt i64 %3, 0
  br i1 %6, label %.lr.ph.preheader, label %.thread

.lr.ph.preheader:                                 ; preds = %5
  %.pre = load ptr, ptr %2, align 8, !tbaa !37
  br label %.lr.ph

.lr.ph:                                           ; preds = %.lr.ph.preheader, %38
  %7 = phi ptr [ %40, %38 ], [ %.pre, %.lr.ph.preheader ]
  %.02237 = phi i64 [ %41, %38 ], [ %3, %.lr.ph.preheader ]
  %8 = load i8, ptr %7, align 1, !tbaa !34
  %9 = icmp sgt i8 %8, -1
  br i1 %9, label %10, label %14

10:                                               ; preds = %.lr.ph
  %11 = zext nneg i8 %8 to i32
  %12 = tail call i32 @_PyUnicodeWriter_WriteChar(ptr noundef %4, i32 noundef %11) #7
  %13 = icmp slt i32 %12, 0
  br i1 %13, label %.thread, label %38, !llvm.loop !57

14:                                               ; preds = %.lr.ph
  %15 = icmp eq i64 %.02237, 1
  br i1 %15, label %.thread, label %16

16:                                               ; preds = %14
  %17 = zext i8 %8 to i64
  %18 = getelementptr [256 x %struct.dbcs_index], ptr @big5_decmap, i64 0, i64 %17
  %19 = load ptr, ptr %18, align 16, !tbaa !58
  %.not = icmp eq ptr %19, null
  br i1 %.not, label %.thread, label %20

20:                                               ; preds = %16
  %21 = getelementptr i8, ptr %7, i64 1
  %22 = load i8, ptr %21, align 1, !tbaa !34
  %23 = zext i8 %22 to i64
  %24 = getelementptr inbounds nuw i8, ptr %18, i64 8
  %25 = load i8, ptr %24, align 8, !tbaa !60
  %26 = zext i8 %25 to i64
  %.not29 = icmp ult i8 %22, %25
  br i1 %.not29, label %.thread, label %27

27:                                               ; preds = %20
  %28 = getelementptr inbounds nuw i8, ptr %18, i64 9
  %29 = load i8, ptr %28, align 1, !tbaa !61
  %.not30 = icmp ugt i8 %22, %29
  br i1 %.not30, label %.thread, label %30

30:                                               ; preds = %27
  %31 = sub nsw i64 %23, %26
  %32 = getelementptr i16, ptr %19, i64 %31
  %33 = load i16, ptr %32, align 2, !tbaa !49
  %.not31 = icmp eq i16 %33, -2
  br i1 %.not31, label %.thread, label %34

34:                                               ; preds = %30
  %35 = zext i16 %33 to i32
  %36 = tail call i32 @_PyUnicodeWriter_WriteChar(ptr noundef %4, i32 noundef %35) #7
  %37 = icmp slt i32 %36, 0
  br i1 %37, label %.thread, label %38

38:                                               ; preds = %34, %10
  %.sink54 = phi i64 [ 1, %10 ], [ 2, %34 ]
  %.sink = phi i64 [ -1, %10 ], [ -2, %34 ]
  %39 = load ptr, ptr %2, align 8, !tbaa !37
  %40 = getelementptr i8, ptr %39, i64 %.sink54
  store ptr %40, ptr %2, align 8, !tbaa !37
  %41 = add nsw i64 %.02237, %.sink
  %42 = icmp sgt i64 %41, 0
  br i1 %42, label %.lr.ph, label %.thread

.thread:                                          ; preds = %38, %10, %14, %34, %30, %27, %20, %16, %5
  %.2 = phi i64 [ 0, %5 ], [ 1, %16 ], [ 1, %20 ], [ 1, %27 ], [ 1, %30 ], [ -4, %34 ], [ -2, %14 ], [ -4, %10 ], [ 0, %38 ]
  ret i64 %.2
}